target datalayout = "e-m:e-p270:32:32-p271:32:32-p272:64:64-i64:64-i128:128-f80:128-n8:16:32:64-S128"
target triple = "x86_64-pc-linux-gnu"

%struct.ForEachState = type { ptr, i32 }
%struct.List = type { i32, i32, i32, ptr, [0 x %union.ListCell] }
%union.ListCell = type { ptr }

@.str.39 = private unnamed_addr constant [15 x i8] c"postmaster.pid\00", align 1
@lock_files = internal global ptr null, align 8

; Function Attrs: nounwind uwtable
define dso_local void @TouchSocketLockFiles() #0 {
  %1 = alloca ptr, align 8
  %2 = alloca %struct.ForEachState, align 8
  %3 = alloca i32, align 4
  %4 = alloca ptr, align 8
  call void @llvm.lifetime.start.p0(i64 8, ptr %1) #12
  call void @llvm.lifetime.start.p0(i64 16, ptr %2) #12
  %5 = getelementptr inbounds nuw %struct.ForEachState, ptr %2, i32 0, i32 0
  %6 = load ptr, ptr @lock_files, align 8
  store ptr %6, ptr %5, align 8
  %7 = getelementptr inbounds nuw %struct.ForEachState, ptr %2, i32 0, i32 1
  store i32 0, ptr %7, align 8
  %8 = getelementptr i8, ptr %2, i64 12
  call void @llvm.memset.p0.i64(ptr align 4 %8, i8 0, i64 4, i1 false)
  br label %9

9:                                                ; preds = %48, %0
  %10 = getelementptr inbounds nuw %struct.ForEachState, ptr %2, i32 0, i32 0
  %11 = load ptr, ptr %10, align 8
  %12 = icmp ne ptr %11, null
  br i1 %12, label %13, label %30

13:                                               ; preds = %9
  %14 = getelementptr inbounds nuw %struct.ForEachState, ptr %2, i32 0, i32 1
  %15 = load i32, ptr %14, align 8
  %16 = getelementptr inbounds nuw %struct.ForEachState, ptr %2, i32 0, i32 0
  %17 = load ptr, ptr %16, align 8
  %18 = getelementptr inbounds nuw %struct.List, ptr %17, i32 0, i32 1
  %19 = load i32, ptr %18, align 4
  %20 = icmp slt i32 %15, %19
  br i1 %20, label %21, label %30

21:                                               ; preds = %13
  %22 = getelementptr inbounds nuw %struct.ForEachState, ptr %2, i32 0, i32 0
  %23 = load ptr, ptr %22, align 8
  %24 = getelementptr inbounds nuw %struct.List, ptr %23, i32 0, i32 3
  %25 = load ptr, ptr %24, align 8
  %26 = getelementptr inbounds nuw %struct.ForEachState, ptr %2, i32 0, i32 1
  %27 = load i32, ptr %26, align 8
  %28 = sext i32 %27 to i64
  %29 = getelementptr inbounds %union.ListCell, ptr %25, i64 %28
  store ptr %29, ptr %1, align 8
  br label %31

30:                                               ; preds = %13, %9
  store ptr null, ptr %1, align 8
  br label %31

31:                                               ; preds = %30, %21
  %32 = phi i32 [ 1, %21 ], [ 0, %30 ]
  %33 = icmp ne i32 %32, 0
  br i1 %33, label %35, label %34

34:                                               ; preds = %31
  store i32 2, ptr %3, align 4
  call void @llvm.lifetime.end.p0(i64 16, ptr %2) #12
  br label %52

35:                                               ; preds = %31
  call void @llvm.lifetime.start.p0(i64 8, ptr %4) #12
  %36 = load ptr, ptr %1, align 8
  %37 = load ptr, ptr %36, align 8
  store ptr %37, ptr %4, align 8
  %38 = load ptr, ptr %4, align 8
  %39 = call i32 @strcmp(ptr noundef %38, ptr noundef @.str.39) #15
  %40 = icmp eq i32 %39, 0
  br i1 %40, label %41, label %42

41:                                               ; preds = %35
  store i32 4, ptr %3, align 4
  br label %45

42:                                               ; preds = %35
  %43 = load ptr, ptr %4, align 8
  %44 = call i32 @utime(ptr noundef %43, ptr noundef null) #12
  store i32 0, ptr %3, align 4
  br label %45

45:                                               ; preds = %42, %41
  call void @llvm.lifetime.end.p0(i64 8, ptr %4) #12
  %46 = load i32, ptr %3, align 4
  switch i32 %46, label %53 [
    i32 0, label %47
    i32 4, label %48
  ]

47:                                               ; preds = %45
  br label %48

48:                                               ; preds = %47, %45
  %49 = getelementptr inbounds nuw %struct.ForEachState, ptr %2, i32 0, i32 1
  %50 = load i32, ptr %49, align 8
  %51 = add i32 %50, 1
  store i32 %51, ptr %49, align 8
  br label %9, !llvm.loop !8

52:                                               ; preds = %34
  call void @llvm.lifetime.end.p0(i64 8, ptr %1) #12
  ret void

53:                                               ; preds = %45
  unreachable
}