; Function Attrs: nofree nounwind uwtable
define dso_local void @TouchSocketLockFiles() local_unnamed_addr #16 {
  %1 = load ptr, ptr @lock_files, align 8
  %2 = getelementptr inbounds nuw i8, ptr %1, i64 4
  %.not = icmp eq ptr %1, null
  br i1 %.not, label %._crit_edge, label %.lr.ph

.lr.ph:                                           ; preds = %0
  %3 = getelementptr inbounds nuw i8, ptr %1, i64 16
  %4 = load i32, ptr %2, align 4
  %5 = icmp sgt i32 %4, 0
  br i1 %5, label %.lr.ph14, label %._crit_edge

._crit_edge:                                      ; preds = %14, %.lr.ph, %0
  ret void

.lr.ph14:                                         ; preds = %.lr.ph, %14
  %6 = phi i32 [ %15, %14 ], [ %4, %.lr.ph ]
  %indvars.iv = phi i64 [ %indvars.iv.next, %14 ], [ 0, %.lr.ph ]
  %7 = load ptr, ptr %3, align 8
  %8 = getelementptr inbounds nuw %union.ListCell, ptr %7, i64 %indvars.iv
  %9 = load ptr, ptr %8, align 8
  %10 = tail call i32 @strcmp(ptr noundef nonnull dereferenceable(1) %9, ptr noundef nonnull dereferenceable(15) @.str.39) #25
  %11 = icmp eq i32 %10, 0
  br i1 %11, label %14, label %12

12:                                               ; preds = %.lr.ph14
  %13 = tail call i32 @utime(ptr noundef nonnull %9, ptr noundef null) #22
  %.pre = load i32, ptr %2, align 4
  br label %14

14:                                               ; preds = %.lr.ph14, %12
  %15 = phi i32 [ %6, %.lr.ph14 ], [ %.pre, %12 ]
  %indvars.iv.next = add nuw nsw i64 %indvars.iv, 1
  %16 = sext i32 %15 to i64
  %17 = icmp slt i64 %indvars.iv.next, %16
  br i1 %17, label %.lr.ph14, label %._crit_edge
}